target datalayout = "e-m:e-p270:32:32-p271:32:32-p272:64:64-i64:64-i128:128-f80:128-n8:16:32:64-S128"
target triple = "x86_64-pc-linux-gnu"

%struct.RelationData = type { %struct.RelFileLocator, ptr, i32, i32, i8, i8, i8, i8, i8, i32, i32, i32, i32, ptr, ptr, i32, %struct.LockInfoData, ptr, ptr, ptr, ptr, ptr, i8, ptr, ptr, ptr, ptr, ptr, ptr, i32, ptr, i8, ptr, ptr, i32, i8, i32, ptr, i8, ptr, ptr, ptr, ptr, ptr, ptr, ptr, i32, ptr, ptr, ptr, ptr, ptr, ptr, ptr, ptr, ptr, ptr, ptr, ptr, ptr, ptr, ptr, ptr, ptr, ptr, ptr, i32, i8, ptr }
%struct.RelFileLocator = type { i32, i32, i32 }
%struct.LockInfoData = type { %struct.LockRelId }
%struct.LockRelId = type { i32, i32 }
%struct.FormData_pg_class = type { i32, %struct.nameData, i32, i32, i32, i32, i32, i32, i32, i32, float, i32, i32, i8, i8, i8, i8, i16, i16, i8, i8, i8, i8, i8, i8, i8, i8, i32, i32, i32 }
%struct.nameData = type { [64 x i8] }
%struct.PageHeaderData = type { %struct.PageXLogRecPtr, i16, i16, i16, i16, i16, i16, i32, [0 x %struct.ItemIdData] }
%struct.PageXLogRecPtr = type { i32, i32 }
%struct.ItemIdData = type { i32 }
%struct.HashPageOpaqueData = type { i32, i32, i32, i16, i16 }
%struct.HashMetaPageData = type { i32, i32, double, i16, i16, i16, i16, i32, i32, i32, i32, i32, i32, i32, [98 x i32], [1024 x i32] }

@.str.1 = private unnamed_addr constant [11 x i8] c"hashutil.c\00", align 1
@.str.2 = private unnamed_addr constant [53 x i8] c"index \22%s\22 contains unexpected zero page at block %u\00", align 1
@.str.3 = private unnamed_addr constant [19 x i8] c"Please REINDEX it.\00", align 1
@__func__._hash_checkpage = private unnamed_addr constant [16 x i8] c"_hash_checkpage\00", align 1
@.str.4 = private unnamed_addr constant [47 x i8] c"index \22%s\22 contains corrupted page at block %u\00", align 1
@.str.5 = private unnamed_addr constant [31 x i8] c"index \22%s\22 is not a hash index\00", align 1
@.str.6 = private unnamed_addr constant [34 x i8] c"index \22%s\22 has wrong hash version\00", align 1
@LocalBufferBlockPointers = external global ptr, align 8
@BufferBlocks = external global ptr, align 8

; Function Attrs: inlinehint nounwind uwtable
define internal i64 @PageGetPageSize(ptr noundef %0) #3 {
  %2 = alloca ptr, align 8
  store ptr %0, ptr %2, align 8
  %3 = load ptr, ptr %2, align 8
  %4 = getelementptr inbounds nuw %struct.PageHeaderData, ptr %3, i32 0, i32 6
  %5 = load i16, ptr %4, align 2
  %6 = zext i16 %5 to i32
  %7 = and i32 %6, 65280
  %8 = sext i32 %7 to i64
  ret i64 %8
}

; Function Attrs: inlinehint nounwind uwtable
define internal ptr @BufferGetBlock(i32 noundef %0) #3 {
  %2 = alloca ptr, align 8
  %3 = alloca i32, align 4
  store i32 %0, ptr %3, align 4
  %4 = load i32, ptr %3, align 4
  %5 = icmp slt i32 %4, 0
  br i1 %5, label %6, label %14

6:                                                ; preds = %1
  %7 = load ptr, ptr @LocalBufferBlockPointers, align 8
  %8 = load i32, ptr %3, align 4
  %9 = sub i32 0, %8
  %10 = sub i32 %9, 1
  %11 = sext i32 %10 to i64
  %12 = getelementptr inbounds ptr, ptr %7, i64 %11
  %13 = load ptr, ptr %12, align 8
  store ptr %13, ptr %2, align 8
  br label %21

14:                                               ; preds = %1
  %15 = load ptr, ptr @BufferBlocks, align 8
  %16 = load i32, ptr %3, align 4
  %17 = sub i32 %16, 1
  %18 = sext i32 %17 to i64
  %19 = mul i64 %18, 8192
  %20 = getelementptr inbounds nuw i8, ptr %15, i64 %19
  store ptr %20, ptr %2, align 8
  br label %21

21:                                               ; preds = %14, %6
  %22 = load ptr, ptr %2, align 8
  ret ptr %22
}

; Function Attrs: inlinehint nounwind uwtable
define internal ptr @PageGetContents(ptr noundef %0) #3 {
  %2 = alloca ptr, align 8
  store ptr %0, ptr %2, align 8
  %3 = load ptr, ptr %2, align 8
  %4 = getelementptr inbounds nuw i8, ptr %3, i64 24
  ret ptr %4
}

; Function Attrs: inlinehint nounwind uwtable
define internal void @PageValidateSpecialPointer(ptr noundef %0) #3 {
  %2 = alloca ptr, align 8
  store ptr %0, ptr %2, align 8
  ret void
}

; Function Attrs: inlinehint nounwind uwtable
define internal zeroext i16 @PageGetSpecialSize(ptr noundef %0) #3 {
  %2 = alloca ptr, align 8
  store ptr %0, ptr %2, align 8
  %3 = load ptr, ptr %2, align 8
  %4 = call i64 @PageGetPageSize(ptr noundef %3)
  %5 = load ptr, ptr %2, align 8
  %6 = getelementptr inbounds nuw %struct.PageHeaderData, ptr %5, i32 0, i32 5
  %7 = load i16, ptr %6, align 4
  %8 = zext i16 %7 to i64
  %9 = sub i64 %4, %8
  %10 = trunc i64 %9 to i16
  ret i16 %10
}

; Function Attrs: inlinehint nounwind uwtable
define internal zeroext i1 @PageIsNew(ptr noundef %0) #3 {
  %2 = alloca ptr, align 8
  store ptr %0, ptr %2, align 8
  %3 = load ptr, ptr %2, align 8
  %4 = getelementptr inbounds nuw %struct.PageHeaderData, ptr %3, i32 0, i32 4
  %5 = load i16, ptr %4, align 2
  %6 = zext i16 %5 to i32
  %7 = icmp eq i32 %6, 0
  ret i1 %7
}

; Function Attrs: inlinehint nounwind uwtable
define internal ptr @BufferGetPage(i32 noundef %0) #3 {
  %2 = alloca i32, align 4
  store i32 %0, ptr %2, align 4
  %3 = load i32, ptr %2, align 4
  %4 = call ptr @BufferGetBlock(i32 noundef %3)
  ret ptr %4
}

; Function Attrs: nounwind uwtable
define dso_local void @_hash_checkpage(ptr noundef %0, i32 noundef %1, i32 noundef %2) #0 {
  %4 = alloca ptr, align 8
  %5 = alloca i32, align 4
  %6 = alloca i32, align 4
  %7 = alloca ptr, align 8
  %8 = alloca ptr, align 8
  %9 = alloca ptr, align 8
  store ptr %0, ptr %4, align 8
  store i32 %1, ptr %5, align 4
  store i32 %2, ptr %6, align 4
  call void @llvm.lifetime.start.p0(i64 8, ptr %7) #6
  %10 = load i32, ptr %5, align 4
  %11 = call ptr @BufferGetPage(i32 noundef %10)
  store ptr %11, ptr %7, align 8
  %12 = load ptr, ptr %7, align 8
  %13 = call zeroext i1 @PageIsNew(ptr noundef %12)
  br i1 %13, label %14, label %35

14:                                               ; preds = %3
  br label %15

15:                                               ; preds = %14
  br i1 true, label %16, label %18

16:                                               ; preds = %15
  %17 = call zeroext i1 @errstart_cold(i32 noundef 21, ptr noundef null) #7
  br i1 %17, label %20, label %32

18:                                               ; preds = %15
  %19 = call zeroext i1 @errstart(i32 noundef 21, ptr noundef null)
  br i1 %19, label %20, label %32

20:                                               ; preds = %18, %16
  %21 = call i32 @errcode(i32 noundef 33557032)
  %22 = load ptr, ptr %4, align 8
  %23 = getelementptr inbounds nuw %struct.RelationData, ptr %22, i32 0, i32 13
  %24 = load ptr, ptr %23, align 8
  %25 = getelementptr inbounds nuw %struct.FormData_pg_class, ptr %24, i32 0, i32 1
  %26 = getelementptr inbounds nuw %struct.nameData, ptr %25, i32 0, i32 0
  %27 = getelementptr inbounds [64 x i8], ptr %26, i64 0, i64 0
  %28 = load i32, ptr %5, align 4
  %29 = call i32 @BufferGetBlockNumber(i32 noundef %28)
  %30 = call i32 (ptr, ...) @errmsg(ptr noundef @.str.2, ptr noundef %27, i32 noundef %29)
  %31 = call i32 (ptr, ...) @errhint(ptr noundef @.str.3)
  call void @errfinish(ptr noundef @.str.1, i32 noundef 226, ptr noundef @__func__._hash_checkpage)
  br label %32

32:                                               ; preds = %20, %18, %16
  unreachable

33:                                               ; No predecessors!
  br label %34

34:                                               ; preds = %33
  br label %35

35:                                               ; preds = %34, %3
  %36 = load ptr, ptr %7, align 8
  %37 = call zeroext i16 @PageGetSpecialSize(ptr noundef %36)
  %38 = zext i16 %37 to i64
  %39 = icmp ne i64 %38, 16
  br i1 %39, label %40, label %61

40:                                               ; preds = %35
  br label %41

41:                                               ; preds = %40
  br i1 true, label %42, label %44

42:                                               ; preds = %41
  %43 = call zeroext i1 @errstart_cold(i32 noundef 21, ptr noundef null) #7
  br i1 %43, label %46, label %58

44:                                               ; preds = %41
  %45 = call zeroext i1 @errstart(i32 noundef 21, ptr noundef null)
  br i1 %45, label %46, label %58

46:                                               ; preds = %44, %42
  %47 = call i32 @errcode(i32 noundef 33557032)
  %48 = load ptr, ptr %4, align 8
  %49 = getelementptr inbounds nuw %struct.RelationData, ptr %48, i32 0, i32 13
  %50 = load ptr, ptr %49, align 8
  %51 = getelementptr inbounds nuw %struct.FormData_pg_class, ptr %50, i32 0, i32 1
  %52 = getelementptr inbounds nuw %struct.nameData, ptr %51, i32 0, i32 0
  %53 = getelementptr inbounds [64 x i8], ptr %52, i64 0, i64 0
  %54 = load i32, ptr %5, align 4
  %55 = call i32 @BufferGetBlockNumber(i32 noundef %54)
  %56 = call i32 (ptr, ...) @errmsg(ptr noundef @.str.4, ptr noundef %53, i32 noundef %55)
  %57 = call i32 (ptr, ...) @errhint(ptr noundef @.str.3)
  call void @errfinish(ptr noundef @.str.1, i32 noundef 237, ptr noundef @__func__._hash_checkpage)
  br label %58

58:                                               ; preds = %46, %44, %42
  unreachable

59:                                               ; No predecessors!
  br label %60

60:                                               ; preds = %59
  br label %61

61:                                               ; preds = %60, %35
  %62 = load i32, ptr %6, align 4
  %63 = icmp ne i32 %62, 0
  br i1 %63, label %64, label %102

64:                                               ; preds = %61
  call void @llvm.lifetime.start.p0(i64 8, ptr %8) #6
  %65 = load ptr, ptr %7, align 8
  call void @PageValidateSpecialPointer(ptr noundef %65)
  %66 = load ptr, ptr %7, align 8
  %67 = load ptr, ptr %7, align 8
  %68 = getelementptr inbounds nuw %struct.PageHeaderData, ptr %67, i32 0, i32 5
  %69 = load i16, ptr %68, align 4
  %70 = zext i16 %69 to i32
  %71 = sext i32 %70 to i64
  %72 = getelementptr inbounds i8, ptr %66, i64 %71
  store ptr %72, ptr %8, align 8
  %73 = load ptr, ptr %8, align 8
  %74 = getelementptr inbounds nuw %struct.HashPageOpaqueData, ptr %73, i32 0, i32 3
  %75 = load i16, ptr %74, align 4
  %76 = zext i16 %75 to i32
  %77 = load i32, ptr %6, align 4
  %78 = and i32 %76, %77
  %79 = icmp eq i32 %78, 0
  br i1 %79, label %80, label %101

80:                                               ; preds = %64
  br label %81

81:                                               ; preds = %80
  br i1 true, label %82, label %84

82:                                               ; preds = %81
  %83 = call zeroext i1 @errstart_cold(i32 noundef 21, ptr noundef null) #7
  br i1 %83, label %86, label %98

84:                                               ; preds = %81
  %85 = call zeroext i1 @errstart(i32 noundef 21, ptr noundef null)
  br i1 %85, label %86, label %98

86:                                               ; preds = %84, %82
  %87 = call i32 @errcode(i32 noundef 33557032)
  %88 = load ptr, ptr %4, align 8
  %89 = getelementptr inbounds nuw %struct.RelationData, ptr %88, i32 0, i32 13
  %90 = load ptr, ptr %89, align 8
  %91 = getelementptr inbounds nuw %struct.FormData_pg_class, ptr %90, i32 0, i32 1
  %92 = getelementptr inbounds nuw %struct.nameData, ptr %91, i32 0, i32 0
  %93 = getelementptr inbounds [64 x i8], ptr %92, i64 0, i64 0
  %94 = load i32, ptr %5, align 4
  %95 = call i32 @BufferGetBlockNumber(i32 noundef %94)
  %96 = call i32 (ptr, ...) @errmsg(ptr noundef @.str.4, ptr noundef %93, i32 noundef %95)
  %97 = call i32 (ptr, ...) @errhint(ptr noundef @.str.3)
  call void @errfinish(ptr noundef @.str.1, i32 noundef 249, ptr noundef @__func__._hash_checkpage)
  br label %98

98:                                               ; preds = %86, %84, %82
  unreachable

99:                                               ; No predecessors!
  br label %100

100:                                              ; preds = %99
  br label %101

101:                                              ; preds = %100, %64
  call void @llvm.lifetime.end.p0(i64 8, ptr %8) #6
  br label %102

102:                                              ; preds = %101, %61
  %103 = load i32, ptr %6, align 4
  %104 = icmp eq i32 %103, 8
  br i1 %104, label %105, label %155

105:                                              ; preds = %102
  call void @llvm.lifetime.start.p0(i64 8, ptr %9) #6
  %106 = load ptr, ptr %7, align 8
  %107 = call ptr @PageGetContents(ptr noundef %106)
  store ptr %107, ptr %9, align 8
  %108 = load ptr, ptr %9, align 8
  %109 = getelementptr inbounds nuw %struct.HashMetaPageData, ptr %108, i32 0, i32 0
  %110 = load i32, ptr %109, align 8
  %111 = icmp ne i32 %110, 105121344
  br i1 %111, label %112, label %130

112:                                              ; preds = %105
  br label %113

113:                                              ; preds = %112
  br i1 true, label %114, label %116

114:                                              ; preds = %113
  %115 = call zeroext i1 @errstart_cold(i32 noundef 21, ptr noundef null) #7
  br i1 %115, label %118, label %127

116:                                              ; preds = %113
  %117 = call zeroext i1 @errstart(i32 noundef 21, ptr noundef null)
  br i1 %117, label %118, label %127

118:                                              ; preds = %116, %114
  %119 = call i32 @errcode(i32 noundef 33557032)
  %120 = load ptr, ptr %4, align 8
  %121 = getelementptr inbounds nuw %struct.RelationData, ptr %120, i32 0, i32 13
  %122 = load ptr, ptr %121, align 8
  %123 = getelementptr inbounds nuw %struct.FormData_pg_class, ptr %122, i32 0, i32 1
  %124 = getelementptr inbounds nuw %struct.nameData, ptr %123, i32 0, i32 0
  %125 = getelementptr inbounds [64 x i8], ptr %124, i64 0, i64 0
  %126 = call i32 (ptr, ...) @errmsg(ptr noundef @.str.5, ptr noundef %125)
  call void @errfinish(ptr noundef @.str.1, i32 noundef 263, ptr noundef @__func__._hash_checkpage)
  br label %127

127:                                              ; preds = %118, %116, %114
  unreachable

128:                                              ; No predecessors!
  br label %129

129:                                              ; preds = %128
  br label %130

130:                                              ; preds = %129, %105
  %131 = load ptr, ptr %9, align 8
  %132 = getelementptr inbounds nuw %struct.HashMetaPageData, ptr %131, i32 0, i32 1
  %133 = load i32, ptr %132, align 4
  %134 = icmp ne i32 %133, 4
  br i1 %134, label %135, label %154

135:                                              ; preds = %130
  br label %136

136:                                              ; preds = %135
  br i1 true, label %137, label %139

137:                                              ; preds = %136
  %138 = call zeroext i1 @errstart_cold(i32 noundef 21, ptr noundef null) #7
  br i1 %138, label %141, label %151

139:                                              ; preds = %136
  %140 = call zeroext i1 @errstart(i32 noundef 21, ptr noundef null)
  br i1 %140, label %141, label %151

141:                                              ; preds = %139, %137
  %142 = call i32 @errcode(i32 noundef 33557032)
  %143 = load ptr, ptr %4, align 8
  %144 = getelementptr inbounds nuw %struct.RelationData, ptr %143, i32 0, i32 13
  %145 = load ptr, ptr %144, align 8
  %146 = getelementptr inbounds nuw %struct.FormData_pg_class, ptr %145, i32 0, i32 1
  %147 = getelementptr inbounds nuw %struct.nameData, ptr %146, i32 0, i32 0
  %148 = getelementptr inbounds [64 x i8], ptr %147, i64 0, i64 0
  %149 = call i32 (ptr, ...) @errmsg(ptr noundef @.str.6, ptr noundef %148)
  %150 = call i32 (ptr, ...) @errhint(ptr noundef @.str.3)
  call void @errfinish(ptr noundef @.str.1, i32 noundef 270, ptr noundef @__func__._hash_checkpage)
  br label %151

151:                                              ; preds = %141, %139, %137
  unreachable

152:                                              ; No predecessors!
  br label %153

153:                                              ; preds = %152
  br label %154

154:                                              ; preds = %153, %130
  call void @llvm.lifetime.end.p0(i64 8, ptr %9) #6
  br label %155

155:                                              ; preds = %154, %102
  call void @llvm.lifetime.end.p0(i64 8, ptr %7) #6
  ret void
}