; Function Attrs: nounwind uwtable
define dso_local void @_hash_checkpage(ptr noundef readonly captures(none) %0, i32 noundef %1, i32 noundef %2) local_unnamed_addr #1 {
  %4 = icmp slt i32 %1, 0
  br i1 %4, label %5, label %11

5:                                                ; preds = %3
  %6 = load ptr, ptr @LocalBufferBlockPointers, align 8
  %7 = xor i32 %1, -1
  %8 = zext nneg i32 %7 to i64
  %9 = getelementptr inbounds nuw ptr, ptr %6, i64 %8
  %10 = load ptr, ptr %9, align 8
  br label %BufferGetPage.exit

11:                                               ; preds = %3
  %12 = load ptr, ptr @BufferBlocks, align 8
  %13 = add nsw i32 %1, -1
  %14 = sext i32 %13 to i64
  %15 = shl nsw i64 %14, 13
  %16 = getelementptr inbounds nuw i8, ptr %12, i64 %15
  br label %BufferGetPage.exit

BufferGetPage.exit:                               ; preds = %5, %11
  %.0.i.i = phi ptr [ %10, %5 ], [ %16, %11 ]
  %17 = getelementptr i8, ptr %.0.i.i, i64 14
  %.val = load i16, ptr %17, align 2
  %18 = icmp eq i16 %.val, 0
  br i1 %18, label %19, label %28

19:                                               ; preds = %BufferGetPage.exit
  %20 = tail call zeroext i1 @errstart_cold(i32 noundef 21, ptr noundef null) #9
  tail call void @llvm.assume(i1 %20)
  %21 = tail call i32 @errcode(i32 noundef 33557032) #8
  %22 = getelementptr inbounds nuw i8, ptr %0, i64 56
  %23 = load ptr, ptr %22, align 8
  %24 = getelementptr inbounds nuw i8, ptr %23, i64 4
  %25 = tail call i32 @BufferGetBlockNumber(i32 noundef %1) #8
  %26 = tail call i32 (ptr, ...) @errmsg(ptr noundef nonnull @.str.2, ptr noundef nonnull %24, i32 noundef %25) #8
  %27 = tail call i32 (ptr, ...) @errhint(ptr noundef nonnull @.str.3) #8
  tail call void @errfinish(ptr noundef nonnull @.str.1, i32 noundef 226, ptr noundef nonnull @__func__._hash_checkpage) #8
  unreachable

28:                                               ; preds = %BufferGetPage.exit
  %29 = getelementptr i8, ptr %.0.i.i, i64 16
  %.val23 = load i16, ptr %29, align 4
  %30 = getelementptr i8, ptr %.0.i.i, i64 18
  %.val24 = load i16, ptr %30, align 2
  %31 = and i16 %.val24, -256
  %32 = sub i16 %31, %.val23
  %.not = icmp eq i16 %32, 16
  br i1 %.not, label %42, label %33

33:                                               ; preds = %28
  %34 = tail call zeroext i1 @errstart_cold(i32 noundef 21, ptr noundef null) #9
  tail call void @llvm.assume(i1 %34)
  %35 = tail call i32 @errcode(i32 noundef 33557032) #8
  %36 = getelementptr inbounds nuw i8, ptr %0, i64 56
  %37 = load ptr, ptr %36, align 8
  %38 = getelementptr inbounds nuw i8, ptr %37, i64 4
  %39 = tail call i32 @BufferGetBlockNumber(i32 noundef %1) #8
  %40 = tail call i32 (ptr, ...) @errmsg(ptr noundef nonnull @.str.4, ptr noundef nonnull %38, i32 noundef %39) #8
  %41 = tail call i32 (ptr, ...) @errhint(ptr noundef nonnull @.str.3) #8
  tail call void @errfinish(ptr noundef nonnull @.str.1, i32 noundef 237, ptr noundef nonnull @__func__._hash_checkpage) #8
  unreachable

42:                                               ; preds = %28
  %cond = icmp eq i32 %2, 0
  br i1 %cond, label %83, label %43

43:                                               ; preds = %42
  %44 = zext i16 %.val23 to i64
  %45 = getelementptr inbounds nuw i8, ptr %.0.i.i, i64 %44
  %46 = getelementptr inbounds nuw i8, ptr %45, i64 12
  %47 = load i16, ptr %46, align 4
  %48 = zext i16 %47 to i32
  %49 = and i32 %2, %48
  %50 = icmp eq i32 %49, 0
  br i1 %50, label %51, label %60

51:                                               ; preds = %43
  %52 = tail call zeroext i1 @errstart_cold(i32 noundef 21, ptr noundef null) #9
  tail call void @llvm.assume(i1 %52)
  %53 = tail call i32 @errcode(i32 noundef 33557032) #8
  %54 = getelementptr inbounds nuw i8, ptr %0, i64 56
  %55 = load ptr, ptr %54, align 8
  %56 = getelementptr inbounds nuw i8, ptr %55, i64 4
  %57 = tail call i32 @BufferGetBlockNumber(i32 noundef %1) #8
  %58 = tail call i32 (ptr, ...) @errmsg(ptr noundef nonnull @.str.4, ptr noundef nonnull %56, i32 noundef %57) #8
  %59 = tail call i32 (ptr, ...) @errhint(ptr noundef nonnull @.str.3) #8
  tail call void @errfinish(ptr noundef nonnull @.str.1, i32 noundef 249, ptr noundef nonnull @__func__._hash_checkpage) #8
  unreachable

60:                                               ; preds = %43
  %61 = icmp eq i32 %2, 8
  br i1 %61, label %62, label %83

62:                                               ; preds = %60
  %63 = getelementptr inbounds nuw i8, ptr %.0.i.i, i64 24
  %64 = load i32, ptr %63, align 8
  %.not21 = icmp eq i32 %64, 105121344
  br i1 %.not21, label %72, label %65

65:                                               ; preds = %62
  %66 = tail call zeroext i1 @errstart_cold(i32 noundef 21, ptr noundef null) #9
  tail call void @llvm.assume(i1 %66)
  %67 = tail call i32 @errcode(i32 noundef 33557032) #8
  %68 = getelementptr inbounds nuw i8, ptr %0, i64 56
  %69 = load ptr, ptr %68, align 8
  %70 = getelementptr inbounds nuw i8, ptr %69, i64 4
  %71 = tail call i32 (ptr, ...) @errmsg(ptr noundef nonnull @.str.5, ptr noundef nonnull %70) #8
  tail call void @errfinish(ptr noundef nonnull @.str.1, i32 noundef 263, ptr noundef nonnull @__func__._hash_checkpage) #8
  unreachable

72:                                               ; preds = %62
  %73 = getelementptr inbounds nuw i8, ptr %.0.i.i, i64 28
  %74 = load i32, ptr %73, align 4
  %.not22 = icmp eq i32 %74, 4
  br i1 %.not22, label %83, label %75

75:                                               ; preds = %72
  %76 = tail call zeroext i1 @errstart_cold(i32 noundef 21, ptr noundef null) #9
  tail call void @llvm.assume(i1 %76)
  %77 = tail call i32 @errcode(i32 noundef 33557032) #8
  %78 = getelementptr inbounds nuw i8, ptr %0, i64 56
  %79 = load ptr, ptr %78, align 8
  %80 = getelementptr inbounds nuw i8, ptr %79, i64 4
  %81 = tail call i32 (ptr, ...) @errmsg(ptr noundef nonnull @.str.6, ptr noundef nonnull %80) #8
  %82 = tail call i32 (ptr, ...) @errhint(ptr noundef nonnull @.str.3) #8
  tail call void @errfinish(ptr noundef nonnull @.str.1, i32 noundef 270, ptr noundef nonnull @__func__._hash_checkpage) #8
  unreachable

83:                                               ; preds = %42, %72, %60
  ret void
}